; Function Attrs: mustprogress nounwind uwtable
define internal fastcc void @_ZN3ozz9animation7offline12_GLOBAL__N_114BuilderIFramesD2Ev(ptr nocapture noundef nonnull readonly align 8 dereferenceable(52) %0) unnamed_addr #4 align 2 personality ptr @__gxx_personality_v0 {
  %2 = getelementptr inbounds i8, ptr %0, i64 24
  %3 = load ptr, ptr %2, align 8
  %.not.i.i.i = icmp eq ptr %3, null
  br i1 %.not.i.i.i, label %_ZNSt6vectorIjN3ozz12StdAllocatorIjEEED2Ev.exit, label %4

4:                                                ; preds = %1
  %5 = invoke noundef ptr @_ZN3ozz6memory17default_allocatorEv()
          to label %6 unwind label %10

6:                                                ; preds = %4
  %7 = load ptr, ptr %5, align 8
  %8 = getelementptr inbounds i8, ptr %7, i64 24
  %9 = load ptr, ptr %8, align 8
  invoke void %9(ptr noundef nonnull align 8 dereferenceable(8) %5, ptr noundef nonnull %3)
          to label %_ZNSt6vectorIjN3ozz12StdAllocatorIjEEED2Ev.exit unwind label %10

10:                                               ; preds = %6, %4
  %11 = landingpad { ptr, i32 }
          catch ptr null
  %12 = extractvalue { ptr, i32 } %11, 0
  tail call void @__clang_call_terminate(ptr %12) #20
  unreachable

_ZNSt6vectorIjN3ozz12StdAllocatorIjEEED2Ev.exit:  ; preds = %1, %6
  %13 = load ptr, ptr %0, align 8
  %.not.i.i.i1 = icmp eq ptr %13, null
  br i1 %.not.i.i.i1, label %_ZNSt6vectorIhN3ozz12StdAllocatorIhEEED2Ev.exit, label %14

14:                                               ; preds = %_ZNSt6vectorIjN3ozz12StdAllocatorIjEEED2Ev.exit
  %15 = invoke noundef ptr @_ZN3ozz6memory17default_allocatorEv()
          to label %16 unwind label %20

16:                                               ; preds = %14
  %17 = load ptr, ptr %15, align 8
  %18 = getelementptr inbounds i8, ptr %17, i64 24
  %19 = load ptr, ptr %18, align 8
  invoke void %19(ptr noundef nonnull align 8 dereferenceable(8) %15, ptr noundef nonnull %13)
          to label %_ZNSt6vectorIhN3ozz12StdAllocatorIhEEED2Ev.exit unwind label %20

20:                                               ; preds = %16, %14
  %21 = landingpad { ptr, i32 }
          catch ptr null
  %22 = extractvalue { ptr, i32 } %21, 0
  tail call void @__clang_call_terminate(ptr %22) #20
  unreachable

_ZNSt6vectorIhN3ozz12StdAllocatorIhEEED2Ev.exit:  ; preds = %_ZNSt6vectorIjN3ozz12StdAllocatorIjEEED2Ev.exit, %16
  ret void
}